target datalayout = "e-m:e-p270:32:32-p271:32:32-p272:64:64-i64:64-i128:128-f80:128-n8:16:32:64-S128"
target triple = "x86_64-pc-linux-gnu"

@.str.1 = private unnamed_addr constant [31 x i8] c"../openssl/crypto/ts/ts_conf.c\00", align 1
@.str.2 = private unnamed_addr constant [4 x i8] c"tsa\00", align 1
@.str.3 = private unnamed_addr constant [12 x i8] c"default_tsa\00", align 1
@__func__.ts_CONF_lookup_fail = private unnamed_addr constant [20 x i8] c"ts_CONF_lookup_fail\00", align 1
@.str.26 = private unnamed_addr constant [7 x i8] c"%s::%s\00", align 1

; Function Attrs: nounwind uwtable
define internal void @ts_CONF_lookup_fail(ptr noundef %0, ptr noundef %1) #0 {
  %3 = alloca ptr, align 8
  %4 = alloca ptr, align 8
  store ptr %0, ptr %3, align 8, !tbaa !3
  store ptr %1, ptr %4, align 8, !tbaa !3
  call void @ERR_new()
  call void @ERR_set_debug(ptr noundef @.str.1, i32 noundef 127, ptr noundef @__func__.ts_CONF_lookup_fail)
  %5 = load ptr, ptr %3, align 8, !tbaa !3
  %6 = load ptr, ptr %4, align 8, !tbaa !3
  call void (i32, i32, ptr, ...) @ERR_set_error(i32 noundef 47, i32 noundef 136, ptr noundef @.str.26, ptr noundef %5, ptr noundef %6)
  ret void
}

; Function Attrs: nounwind uwtable
define ptr @TS_CONF_get_tsa_section(ptr noundef %0, ptr noundef %1) #0 {
  %3 = alloca ptr, align 8
  %4 = alloca ptr, align 8
  store ptr %0, ptr %3, align 8, !tbaa !31
  store ptr %1, ptr %4, align 8, !tbaa !3
  %5 = load ptr, ptr %4, align 8, !tbaa !3
  %6 = icmp ne ptr %5, null
  br i1 %6, label %14, label %7

7:                                                ; preds = %2
  %8 = load ptr, ptr %3, align 8, !tbaa !31
  %9 = call ptr @NCONF_get_string(ptr noundef %8, ptr noundef @.str.2, ptr noundef @.str.3)
  store ptr %9, ptr %4, align 8, !tbaa !3
  %10 = load ptr, ptr %4, align 8, !tbaa !3
  %11 = icmp ne ptr %10, null
  br i1 %11, label %13, label %12

12:                                               ; preds = %7
  call void @ts_CONF_lookup_fail(ptr noundef @.str.2, ptr noundef @.str.3)
  br label %13

13:                                               ; preds = %12, %7
  br label %14

14:                                               ; preds = %13, %2
  %15 = load ptr, ptr %4, align 8, !tbaa !3
  ret ptr %15
}