; Function Attrs: nounwind uwtable
define ptr @TS_CONF_get_tsa_section(ptr noundef %0, ptr noundef readnone captures(address_is_null, ret: address, provenance) %1) local_unnamed_addr #0 {
  %.not = icmp eq ptr %1, null
  br i1 %.not, label %3, label %6

3:                                                ; preds = %2
  %4 = tail call ptr @NCONF_get_string(ptr noundef %0, ptr noundef nonnull @.str.2, ptr noundef nonnull @.str.3) #4
  %.not6 = icmp eq ptr %4, null
  br i1 %.not6, label %5, label %6

5:                                                ; preds = %3
  tail call void @ERR_new() #4
  tail call void @ERR_set_debug(ptr noundef nonnull @.str.1, i32 noundef 127, ptr noundef nonnull @__func__.ts_CONF_lookup_fail) #4
  tail call void (i32, i32, ptr, ...) @ERR_set_error(i32 noundef 47, i32 noundef 136, ptr noundef nonnull @.str.26, ptr noundef nonnull @.str.2, ptr noundef nonnull @.str.3) #4
  br label %6

6:                                                ; preds = %3, %5, %2
  %.0 = phi ptr [ %1, %2 ], [ %4, %3 ], [ null, %5 ]
  ret ptr %.0
}